target datalayout = "e-m:e-p270:32:32-p271:32:32-p272:64:64-i64:64-i128:128-f80:128-n8:16:32:64-S128"
target triple = "x86_64-pc-linux-gnu"

%struct.AVFormatContext = type { ptr, ptr, ptr, ptr, ptr, i32, i32, ptr, i32, ptr, i32, ptr, ptr, i64, i64, i64, i32, i32, i32, i64, i64, ptr, i32, i32, ptr, i32, i32, i32, i32, ptr, i64, i32, i32, %struct.AVIOInterruptCB, i32, i32, i32, i32, i64, i32, i32, i32, i32, i32, i32, i32, i32, i32, i32, i32, i32, i64, i32, i32, i32, i32, i32, ptr, ptr, ptr, ptr, i32, ptr, ptr, ptr, ptr, i32, ptr, ptr, i64, ptr, ptr, ptr, i64 }
%struct.AVIOInterruptCB = type { ptr, ptr }
%struct.PPBnkCtx = type { i32, ptr, i32, i32 }
%struct.PPBnkCtxTrack = type { i64, i32, i32 }
%struct.AVPacket = type { ptr, i64, i64, ptr, i32, i32, i32, ptr, i32, i64, i64, ptr, ptr, %struct.AVRational }
%struct.AVRational = type { i32, i32 }

; Function Attrs: nounwind uwtable
define internal i32 @pp_bnk_read_packet(ptr noundef %0, ptr noundef %1) #0 {
  %3 = alloca i32, align 4
  %4 = alloca ptr, align 8
  %5 = alloca ptr, align 8
  %6 = alloca ptr, align 8
  %7 = alloca i32, align 4
  %8 = alloca i32, align 4
  %9 = alloca i64, align 8
  %10 = alloca i32, align 4
  %11 = alloca ptr, align 8
  store ptr %0, ptr %4, align 8, !tbaa !15
  store ptr %1, ptr %5, align 8, !tbaa !81
  call void @llvm.lifetime.start.p0(i64 8, ptr %6) #5
  %12 = load ptr, ptr %4, align 8, !tbaa !15
  %13 = getelementptr inbounds nuw %struct.AVFormatContext, ptr %12, i32 0, i32 3
  %14 = load ptr, ptr %13, align 8, !tbaa !17
  store ptr %14, ptr %6, align 8, !tbaa !32
  call void @llvm.lifetime.start.p0(i64 4, ptr %7) #5
  store i32 0, ptr %7, align 4, !tbaa !14
  br label %15

15:                                               ; preds = %205, %2
  %16 = load i32, ptr %7, align 4, !tbaa !14
  %17 = load ptr, ptr %6, align 8, !tbaa !32
  %18 = getelementptr inbounds nuw %struct.PPBnkCtx, ptr %17, i32 0, i32 0
  %19 = load i32, ptr %18, align 8, !tbaa !40
  %20 = icmp slt i32 %16, %19
  br i1 %20, label %22, label %21

21:                                               ; preds = %15
  store i32 2, ptr %8, align 4
  br label %212

22:                                               ; preds = %15
  call void @llvm.lifetime.start.p0(i64 8, ptr %9) #5
  call void @llvm.lifetime.start.p0(i64 4, ptr %10) #5
  call void @llvm.lifetime.start.p0(i64 8, ptr %11) #5
  %23 = load ptr, ptr %6, align 8, !tbaa !32
  %24 = getelementptr inbounds nuw %struct.PPBnkCtx, ptr %23, i32 0, i32 0
  %25 = load i32, ptr %24, align 8, !tbaa !40
  %26 = load ptr, ptr %6, align 8, !tbaa !32
  %27 = getelementptr inbounds nuw %struct.PPBnkCtx, ptr %26, i32 0, i32 2
  %28 = load i32, ptr %27, align 8, !tbaa !83
  %29 = urem i32 %28, %25
  store i32 %29, ptr %27, align 8, !tbaa !83
  %30 = load ptr, ptr %6, align 8, !tbaa !32
  %31 = getelementptr inbounds nuw %struct.PPBnkCtx, ptr %30, i32 0, i32 1
  %32 = load ptr, ptr %31, align 8, !tbaa !43
  %33 = load ptr, ptr %6, align 8, !tbaa !32
  %34 = getelementptr inbounds nuw %struct.PPBnkCtx, ptr %33, i32 0, i32 2
  %35 = load i32, ptr %34, align 8, !tbaa !83
  %36 = zext i32 %35 to i64
  %37 = getelementptr inbounds nuw %struct.PPBnkCtxTrack, ptr %32, i64 %36
  store ptr %37, ptr %11, align 8, !tbaa !44
  %38 = load ptr, ptr %11, align 8, !tbaa !44
  %39 = getelementptr inbounds nuw %struct.PPBnkCtxTrack, ptr %38, i32 0, i32 2
  %40 = load i32, ptr %39, align 4, !tbaa !53
  %41 = load ptr, ptr %11, align 8, !tbaa !44
  %42 = getelementptr inbounds nuw %struct.PPBnkCtxTrack, ptr %41, i32 0, i32 1
  %43 = load i32, ptr %42, align 8, !tbaa !52
  %44 = icmp eq i32 %40, %43
  br i1 %44, label %45, label %46

45:                                               ; preds = %22
  store i32 4, ptr %8, align 4
  br label %203

46:                                               ; preds = %22
  %47 = load ptr, ptr %4, align 8, !tbaa !15
  %48 = getelementptr inbounds nuw %struct.AVFormatContext, ptr %47, i32 0, i32 4
  %49 = load ptr, ptr %48, align 8, !tbaa !34
  %50 = load ptr, ptr %11, align 8, !tbaa !44
  %51 = getelementptr inbounds nuw %struct.PPBnkCtxTrack, ptr %50, i32 0, i32 0
  %52 = load i64, ptr %51, align 8, !tbaa !49
  %53 = load ptr, ptr %11, align 8, !tbaa !44
  %54 = getelementptr inbounds nuw %struct.PPBnkCtxTrack, ptr %53, i32 0, i32 2
  %55 = load i32, ptr %54, align 4, !tbaa !53
  %56 = zext i32 %55 to i64
  %57 = add nsw i64 %52, %56
  %58 = call i64 @avio_seek(ptr noundef %49, i64 noundef %57, i32 noundef 0)
  store i64 %58, ptr %9, align 8, !tbaa !35
  %59 = icmp slt i64 %58, 0
  br i1 %59, label %60, label %63

60:                                               ; preds = %46
  %61 = load i64, ptr %9, align 8, !tbaa !35
  %62 = trunc i64 %61 to i32
  store i32 %62, ptr %3, align 4
  store i32 1, ptr %8, align 4
  br label %203

63:                                               ; preds = %46
  %64 = load i64, ptr %9, align 8, !tbaa !35
  %65 = load ptr, ptr %11, align 8, !tbaa !44
  %66 = getelementptr inbounds nuw %struct.PPBnkCtxTrack, ptr %65, i32 0, i32 0
  %67 = load i64, ptr %66, align 8, !tbaa !49
  %68 = load ptr, ptr %11, align 8, !tbaa !44
  %69 = getelementptr inbounds nuw %struct.PPBnkCtxTrack, ptr %68, i32 0, i32 2
  %70 = load i32, ptr %69, align 4, !tbaa !53
  %71 = zext i32 %70 to i64
  %72 = add nsw i64 %67, %71
  %73 = icmp ne i64 %64, %72
  br i1 %73, label %74, label %75

74:                                               ; preds = %63
  store i32 -5, ptr %3, align 4
  store i32 1, ptr %8, align 4
  br label %203

75:                                               ; preds = %63
  br label %76

76:                                               ; preds = %75
  %77 = load ptr, ptr %11, align 8, !tbaa !44
  %78 = getelementptr inbounds nuw %struct.PPBnkCtxTrack, ptr %77, i32 0, i32 1
  %79 = load i32, ptr %78, align 8, !tbaa !52
  %80 = load ptr, ptr %11, align 8, !tbaa !44
  %81 = getelementptr inbounds nuw %struct.PPBnkCtxTrack, ptr %80, i32 0, i32 2
  %82 = load i32, ptr %81, align 4, !tbaa !53
  %83 = sub i32 %79, %82
  %84 = icmp ugt i32 %83, 4096
  br i1 %84, label %85, label %86

85:                                               ; preds = %76
  br label %94

86:                                               ; preds = %76
  %87 = load ptr, ptr %11, align 8, !tbaa !44
  %88 = getelementptr inbounds nuw %struct.PPBnkCtxTrack, ptr %87, i32 0, i32 1
  %89 = load i32, ptr %88, align 8, !tbaa !52
  %90 = load ptr, ptr %11, align 8, !tbaa !44
  %91 = getelementptr inbounds nuw %struct.PPBnkCtxTrack, ptr %90, i32 0, i32 2
  %92 = load i32, ptr %91, align 4, !tbaa !53
  %93 = sub i32 %89, %92
  br label %94

94:                                               ; preds = %86, %85
  %95 = phi i32 [ 4096, %85 ], [ %93, %86 ]
  store i32 %95, ptr %10, align 4, !tbaa !14
  %96 = load ptr, ptr %6, align 8, !tbaa !32
  %97 = getelementptr inbounds nuw %struct.PPBnkCtx, ptr %96, i32 0, i32 3
  %98 = load i32, ptr %97, align 4, !tbaa !57
  %99 = icmp ne i32 %98, 0
  br i1 %99, label %117, label %100

100:                                              ; preds = %94
  %101 = load ptr, ptr %4, align 8, !tbaa !15
  %102 = getelementptr inbounds nuw %struct.AVFormatContext, ptr %101, i32 0, i32 4
  %103 = load ptr, ptr %102, align 8, !tbaa !34
  %104 = load ptr, ptr %5, align 8, !tbaa !81
  %105 = load i32, ptr %10, align 4, !tbaa !14
  %106 = call i32 @av_get_packet(ptr noundef %103, ptr noundef %104, i32 noundef %105)
  %107 = sext i32 %106 to i64
  store i64 %107, ptr %9, align 8, !tbaa !35
  %108 = load i64, ptr %9, align 8, !tbaa !35
  %109 = icmp eq i64 %108, -541478725
  br i1 %109, label %110, label %116

110:                                              ; preds = %100
  %111 = load ptr, ptr %11, align 8, !tbaa !44
  %112 = getelementptr inbounds nuw %struct.PPBnkCtxTrack, ptr %111, i32 0, i32 2
  %113 = load i32, ptr %112, align 4, !tbaa !53
  %114 = load ptr, ptr %11, align 8, !tbaa !44
  %115 = getelementptr inbounds nuw %struct.PPBnkCtxTrack, ptr %114, i32 0, i32 1
  store i32 %113, ptr %115, align 8, !tbaa !52
  store i32 4, ptr %8, align 4
  br label %203

116:                                              ; preds = %100
  br label %158

117:                                              ; preds = %94
  %118 = load ptr, ptr %5, align 8, !tbaa !81
  %119 = getelementptr inbounds nuw %struct.AVPacket, ptr %118, i32 0, i32 3
  %120 = load ptr, ptr %119, align 8, !tbaa !84
  %121 = icmp ne ptr %120, null
  br i1 %121, label %132, label %122

122:                                              ; preds = %117
  %123 = load ptr, ptr %5, align 8, !tbaa !81
  %124 = load i32, ptr %10, align 4, !tbaa !14
  %125 = mul nsw i32 %124, 2
  %126 = call i32 @av_new_packet(ptr noundef %123, i32 noundef %125)
  %127 = sext i32 %126 to i64
  store i64 %127, ptr %9, align 8, !tbaa !35
  %128 = icmp slt i64 %127, 0
  br i1 %128, label %129, label %132

129:                                              ; preds = %122
  %130 = load i64, ptr %9, align 8, !tbaa !35
  %131 = trunc i64 %130 to i32
  store i32 %131, ptr %3, align 4
  store i32 1, ptr %8, align 4
  br label %203

132:                                              ; preds = %122, %117
  %133 = load ptr, ptr %4, align 8, !tbaa !15
  %134 = getelementptr inbounds nuw %struct.AVFormatContext, ptr %133, i32 0, i32 4
  %135 = load ptr, ptr %134, align 8, !tbaa !34
  %136 = load ptr, ptr %5, align 8, !tbaa !81
  %137 = getelementptr inbounds nuw %struct.AVPacket, ptr %136, i32 0, i32 3
  %138 = load ptr, ptr %137, align 8, !tbaa !84
  %139 = load i32, ptr %10, align 4, !tbaa !14
  %140 = load ptr, ptr %6, align 8, !tbaa !32
  %141 = getelementptr inbounds nuw %struct.PPBnkCtx, ptr %140, i32 0, i32 2
  %142 = load i32, ptr %141, align 8, !tbaa !83
  %143 = mul i32 %139, %142
  %144 = zext i32 %143 to i64
  %145 = getelementptr inbounds nuw i8, ptr %138, i64 %144
  %146 = load i32, ptr %10, align 4, !tbaa !14
  %147 = call i32 @avio_read(ptr noundef %135, ptr noundef %145, i32 noundef %146)
  %148 = sext i32 %147 to i64
  store i64 %148, ptr %9, align 8, !tbaa !35
  %149 = load i64, ptr %9, align 8, !tbaa !35
  %150 = icmp sge i64 %149, 0
  br i1 %150, label %151, label %157

151:                                              ; preds = %132
  %152 = load i64, ptr %9, align 8, !tbaa !35
  %153 = load i32, ptr %10, align 4, !tbaa !14
  %154 = sext i32 %153 to i64
  %155 = icmp ne i64 %152, %154
  br i1 %155, label %156, label %157

156:                                              ; preds = %151
  store i64 -541478725, ptr %9, align 8, !tbaa !35
  br label %157

157:                                              ; preds = %156, %151, %132
  br label %158

158:                                              ; preds = %157, %116
  %159 = load i64, ptr %9, align 8, !tbaa !35
  %160 = icmp slt i64 %159, 0
  br i1 %160, label %161, label %164

161:                                              ; preds = %158
  %162 = load i64, ptr %9, align 8, !tbaa !35
  %163 = trunc i64 %162 to i32
  store i32 %163, ptr %3, align 4
  store i32 1, ptr %8, align 4
  br label %203

164:                                              ; preds = %158
  %165 = load i64, ptr %9, align 8, !tbaa !35
  %166 = load ptr, ptr %11, align 8, !tbaa !44
  %167 = getelementptr inbounds nuw %struct.PPBnkCtxTrack, ptr %166, i32 0, i32 2
  %168 = load i32, ptr %167, align 4, !tbaa !53
  %169 = zext i32 %168 to i64
  %170 = add nsw i64 %169, %165
  %171 = trunc i64 %170 to i32
  store i32 %171, ptr %167, align 4, !tbaa !53
  %172 = load ptr, ptr %5, align 8, !tbaa !81
  %173 = getelementptr inbounds nuw %struct.AVPacket, ptr %172, i32 0, i32 6
  %174 = load i32, ptr %173, align 8, !tbaa !85
  %175 = and i32 %174, -3
  store i32 %175, ptr %173, align 8, !tbaa !85
  %176 = load ptr, ptr %6, align 8, !tbaa !32
  %177 = getelementptr inbounds nuw %struct.PPBnkCtx, ptr %176, i32 0, i32 2
  %178 = load i32, ptr %177, align 8, !tbaa !83
  %179 = load ptr, ptr %5, align 8, !tbaa !81
  %180 = getelementptr inbounds nuw %struct.AVPacket, ptr %179, i32 0, i32 5
  store i32 %178, ptr %180, align 4, !tbaa !86
  %181 = load i64, ptr %9, align 8, !tbaa !35
  %182 = mul nsw i64 %181, 2
  %183 = load ptr, ptr %5, align 8, !tbaa !81
  %184 = getelementptr inbounds nuw %struct.AVPacket, ptr %183, i32 0, i32 9
  store i64 %182, ptr %184, align 8, !tbaa !87
  %185 = load ptr, ptr %6, align 8, !tbaa !32
  %186 = getelementptr inbounds nuw %struct.PPBnkCtx, ptr %185, i32 0, i32 3
  %187 = load i32, ptr %186, align 4, !tbaa !57
  %188 = icmp ne i32 %187, 0
  br i1 %188, label %189, label %198

189:                                              ; preds = %164
  %190 = load ptr, ptr %5, align 8, !tbaa !81
  %191 = getelementptr inbounds nuw %struct.AVPacket, ptr %190, i32 0, i32 5
  %192 = load i32, ptr %191, align 4, !tbaa !86
  %193 = icmp eq i32 %192, 0
  br i1 %193, label %194, label %195

194:                                              ; preds = %189
  store i32 4, ptr %8, align 4
  br label %203

195:                                              ; preds = %189
  %196 = load ptr, ptr %5, align 8, !tbaa !81
  %197 = getelementptr inbounds nuw %struct.AVPacket, ptr %196, i32 0, i32 5
  store i32 0, ptr %197, align 4, !tbaa !86
  br label %198

198:                                              ; preds = %195, %164
  %199 = load ptr, ptr %6, align 8, !tbaa !32
  %200 = getelementptr inbounds nuw %struct.PPBnkCtx, ptr %199, i32 0, i32 2
  %201 = load i32, ptr %200, align 8, !tbaa !83
  %202 = add i32 %201, 1
  store i32 %202, ptr %200, align 8, !tbaa !83
  store i32 0, ptr %3, align 4
  store i32 1, ptr %8, align 4
  br label %203

203:                                              ; preds = %198, %194, %161, %129, %110, %74, %60, %45
  call void @llvm.lifetime.end.p0(i64 8, ptr %11) #5
  call void @llvm.lifetime.end.p0(i64 4, ptr %10) #5
  call void @llvm.lifetime.end.p0(i64 8, ptr %9) #5
  %204 = load i32, ptr %8, align 4
  switch i32 %204, label %212 [
    i32 4, label %205
  ]

205:                                              ; preds = %203
  %206 = load i32, ptr %7, align 4, !tbaa !14
  %207 = add nsw i32 %206, 1
  store i32 %207, ptr %7, align 4, !tbaa !14
  %208 = load ptr, ptr %6, align 8, !tbaa !32
  %209 = getelementptr inbounds nuw %struct.PPBnkCtx, ptr %208, i32 0, i32 2
  %210 = load i32, ptr %209, align 8, !tbaa !83
  %211 = add i32 %210, 1
  store i32 %211, ptr %209, align 8, !tbaa !83
  br label %15, !llvm.loop !88

212:                                              ; preds = %203, %21
  call void @llvm.lifetime.end.p0(i64 4, ptr %7) #5
  %213 = load i32, ptr %8, align 4
  switch i32 %213, label %215 [
    i32 2, label %214
  ]

214:                                              ; preds = %212
  store i32 -541478725, ptr %3, align 4
  store i32 1, ptr %8, align 4
  br label %215

215:                                              ; preds = %214, %212
  call void @llvm.lifetime.end.p0(i64 8, ptr %6) #5
  %216 = load i32, ptr %3, align 4
  ret i32 %216
}