; Function Attrs: nounwind uwtable
define internal i32 @pp_bnk_read_packet(ptr noundef readonly captures(none) %0, ptr noundef %1) #1 {
  %3 = getelementptr inbounds nuw i8, ptr %0, i64 24
  %4 = load ptr, ptr %3, align 8, !tbaa !12
  %5 = load i32, ptr %4, align 8, !tbaa !28
  %.not7389 = icmp sgt i32 %5, 0
  br i1 %.not7389, label %.lr.ph, label %.thread77

.lr.ph:                                           ; preds = %2
  %6 = getelementptr inbounds nuw i8, ptr %4, i64 16
  %7 = getelementptr inbounds nuw i8, ptr %4, i64 8
  %8 = getelementptr inbounds nuw i8, ptr %0, i64 32
  %9 = getelementptr inbounds nuw i8, ptr %4, i64 20
  %10 = getelementptr inbounds nuw i8, ptr %1, i64 24
  %11 = getelementptr inbounds nuw i8, ptr %1, i64 40
  %12 = getelementptr inbounds nuw i8, ptr %1, i64 36
  %13 = getelementptr inbounds nuw i8, ptr %1, i64 64
  %.pre = load i32, ptr %6, align 8, !tbaa !59
  br label %14

14:                                               ; preds = %.lr.ph, %79
  %15 = phi i32 [ %.pre, %.lr.ph ], [ %82, %79 ]
  %16 = phi i32 [ %5, %.lr.ph ], [ %83, %79 ]
  %.05790 = phi i32 [ 0, %.lr.ph ], [ %81, %79 ]
  %17 = urem i32 %15, %16
  store i32 %17, ptr %6, align 8, !tbaa !59
  %18 = load ptr, ptr %7, align 8, !tbaa !31
  %19 = zext i32 %17 to i64
  %20 = getelementptr inbounds nuw %struct.PPBnkCtxTrack, ptr %18, i64 %19
  %21 = getelementptr inbounds nuw i8, ptr %20, i64 12
  %22 = load i32, ptr %21, align 4, !tbaa !35
  %23 = getelementptr inbounds nuw i8, ptr %20, i64 8
  %24 = load i32, ptr %23, align 8, !tbaa !34
  %25 = icmp eq i32 %22, %24
  br i1 %25, label %79, label %26

26:                                               ; preds = %14
  %27 = load ptr, ptr %8, align 8, !tbaa !27
  %28 = load i64, ptr %20, align 8, !tbaa !32
  %29 = zext i32 %22 to i64
  %30 = add nsw i64 %28, %29
  %31 = tail call i64 @avio_seek(ptr noundef %27, i64 noundef %30, i32 noundef 0) #6
  %32 = icmp slt i64 %31, 0
  br i1 %32, label %33, label %35

33:                                               ; preds = %26
  %34 = trunc i64 %31 to i32
  br label %.thread77

35:                                               ; preds = %26
  %36 = load i64, ptr %20, align 8, !tbaa !32
  %37 = load i32, ptr %21, align 4, !tbaa !35
  %38 = zext i32 %37 to i64
  %39 = add nsw i64 %36, %38
  %.not = icmp eq i64 %31, %39
  br i1 %.not, label %40, label %.thread77

40:                                               ; preds = %35
  %41 = load i32, ptr %23, align 8, !tbaa !34
  %42 = sub i32 %41, %37
  %spec.select = tail call i32 @llvm.umin.i32(i32 %42, i32 4096)
  %43 = load i32, ptr %9, align 4, !tbaa !38
  %.not69 = icmp eq i32 %43, 0
  br i1 %.not69, label %44, label %50

44:                                               ; preds = %40
  %45 = load ptr, ptr %8, align 8, !tbaa !27
  %46 = tail call i32 @av_get_packet(ptr noundef %45, ptr noundef %1, i32 noundef %spec.select) #6
  %47 = icmp eq i32 %46, -541478725
  br i1 %47, label %48, label %select.unfold

48:                                               ; preds = %44
  %49 = load i32, ptr %21, align 4, !tbaa !35
  store i32 %49, ptr %23, align 8, !tbaa !34
  %.pre103 = load i32, ptr %6, align 8, !tbaa !59
  br label %79

50:                                               ; preds = %40
  %51 = load ptr, ptr %10, align 8, !tbaa !60
  %.not70 = icmp eq ptr %51, null
  br i1 %.not70, label %52, label %56

52:                                               ; preds = %50
  %53 = shl nuw nsw i32 %spec.select, 1
  %54 = tail call i32 @av_new_packet(ptr noundef nonnull %1, i32 noundef %53) #6
  %55 = icmp slt i32 %54, 0
  br i1 %55, label %.thread77, label %._crit_edge

._crit_edge:                                      ; preds = %52
  %.pre102 = load ptr, ptr %10, align 8, !tbaa !60
  br label %56

56:                                               ; preds = %._crit_edge, %50
  %57 = phi ptr [ %.pre102, %._crit_edge ], [ %51, %50 ]
  %58 = load ptr, ptr %8, align 8, !tbaa !27
  %59 = load i32, ptr %6, align 8, !tbaa !59
  %60 = mul i32 %59, %spec.select
  %61 = zext i32 %60 to i64
  %62 = getelementptr inbounds nuw i8, ptr %57, i64 %61
  %63 = tail call i32 @avio_read(ptr noundef %58, ptr noundef %62, i32 noundef %spec.select) #6
  %64 = icmp slt i32 %63, 0
  %.not71 = icmp eq i32 %63, %spec.select
  %or.cond = select i1 %64, i1 true, i1 %.not71
  br i1 %or.cond, label %select.unfold, label %.thread77

select.unfold:                                    ; preds = %56, %44
  %.058.in = phi i32 [ %63, %56 ], [ %46, %44 ]
  %65 = icmp slt i32 %.058.in, 0
  br i1 %65, label %.thread77, label %66

66:                                               ; preds = %select.unfold
  %67 = load i32, ptr %21, align 4, !tbaa !35
  %68 = add i32 %67, %.058.in
  store i32 %68, ptr %21, align 4, !tbaa !35
  %69 = load i32, ptr %11, align 8, !tbaa !61
  %70 = and i32 %69, -3
  store i32 %70, ptr %11, align 8, !tbaa !61
  %71 = load i32, ptr %6, align 8, !tbaa !59
  store i32 %71, ptr %12, align 4, !tbaa !62
  %72 = shl nuw i32 %.058.in, 1
  %73 = zext i32 %72 to i64
  store i64 %73, ptr %13, align 8, !tbaa !63
  %74 = load i32, ptr %9, align 4, !tbaa !38
  %.not72 = icmp eq i32 %74, 0
  br i1 %.not72, label %.loopexit, label %75

75:                                               ; preds = %66
  %76 = icmp eq i32 %71, 0
  br i1 %76, label %79, label %77

77:                                               ; preds = %75
  store i32 0, ptr %12, align 4, !tbaa !62
  br label %.loopexit

.loopexit:                                        ; preds = %66, %77
  %78 = add i32 %71, 1
  store i32 %78, ptr %6, align 8, !tbaa !59
  br label %.thread77

79:                                               ; preds = %48, %14, %75
  %80 = phi i32 [ %.pre103, %48 ], [ %17, %14 ], [ 0, %75 ]
  %81 = add nuw nsw i32 %.05790, 1
  %82 = add i32 %80, 1
  store i32 %82, ptr %6, align 8, !tbaa !59
  %83 = load i32, ptr %4, align 8, !tbaa !28
  %.not73 = icmp slt i32 %81, %83
  br i1 %.not73, label %14, label %.thread77, !llvm.loop !64

.thread77:                                        ; preds = %79, %35, %52, %56, %select.unfold, %2, %.loopexit, %33
  %spec.select74 = phi i32 [ 0, %.loopexit ], [ %34, %33 ], [ -541478725, %2 ], [ -541478725, %79 ], [ -5, %35 ], [ %54, %52 ], [ -541478725, %56 ], [ %.058.in, %select.unfold ]
  ret i32 %spec.select74
}